; Function Attrs: mustprogress uwtable
define void @_ZNK14hstateen_csr_t18verify_permissionsE6insn_tb(ptr noundef nonnull readonly align 8 captures(none) dereferenceable(64) %0, i64 %1, i1 noundef zeroext %2) unnamed_addr #4 align 2 personality ptr @__gxx_personality_v0 {
  %4 = getelementptr inbounds nuw i8, ptr %0, i64 16
  %5 = load ptr, ptr %4, align 8, !tbaa !15
  %6 = getelementptr inbounds nuw i8, ptr %5, i64 832
  %7 = load i64, ptr %6, align 8, !tbaa !19
  %8 = icmp ult i64 %7, 3
  br i1 %8, label %9, label %25

9:                                                ; preds = %3
  %10 = getelementptr inbounds nuw i8, ptr %5, i64 3296
  %11 = getelementptr inbounds nuw i8, ptr %0, i64 48
  %12 = load i8, ptr %11, align 8, !tbaa !269
  %13 = zext i8 %12 to i64
  %14 = getelementptr inbounds nuw [4 x %"class.std::shared_ptr.32"], ptr %10, i64 0, i64 %13
  %15 = load ptr, ptr %14, align 8, !tbaa !176
  %16 = load ptr, ptr %15, align 8, !tbaa !3
  %17 = getelementptr inbounds nuw i8, ptr %16, i64 8
  %18 = load ptr, ptr %17, align 8
  %19 = tail call noundef i64 %18(ptr noundef nonnull align 8 dereferenceable(37) %15) #30
  %.not = icmp sgt i64 %19, -1
  br i1 %.not, label %20, label %25

20:                                               ; preds = %9
  %21 = tail call ptr @__cxa_allocate_exception(i64 32) #30
  %22 = getelementptr inbounds nuw i8, ptr %21, i64 8
  store i64 2, ptr %22, align 8, !tbaa !97
  %23 = getelementptr inbounds nuw i8, ptr %21, i64 16
  store i8 0, ptr %23, align 8, !tbaa !99
  %24 = getelementptr inbounds nuw i8, ptr %21, i64 24
  store i64 %1, ptr %24, align 8, !tbaa !101
  store ptr getelementptr inbounds nuw inrange(-16, 80) (i8, ptr @_ZTV24trap_illegal_instruction, i64 16), ptr %21, align 8, !tbaa !3
  tail call void @__cxa_throw(ptr nonnull %21, ptr nonnull @_ZTI24trap_illegal_instruction, ptr nonnull @_ZN6trap_tD2Ev) #31
  unreachable

25:                                               ; preds = %9, %3
  tail call void @_ZNK5csr_t18verify_permissionsE6insn_tb(ptr noundef nonnull align 8 dereferenceable(37) %0, i64 %1, i1 noundef zeroext %2)
  ret void
}